target datalayout = "e-m:e-p270:32:32-p271:32:32-p272:64:64-i64:64-i128:128-f80:128-n8:16:32:64-S128"
target triple = "x86_64-pc-linux-gnu"

%"class.facebook::yoga::Node" = type { i8, ptr, ptr, ptr, ptr, %"class.facebook::yoga::Style", %"struct.facebook::yoga::LayoutResults", i64, i64, ptr, %"class.std::vector", ptr, %"struct.std::array.8" }
%"class.facebook::yoga::Style" = type { i32, %"class.facebook::yoga::StyleValueHandle", %"class.facebook::yoga::StyleValueHandle", %"class.facebook::yoga::StyleValueHandle", %"class.facebook::yoga::StyleValueHandle", %"struct.std::array", %"struct.std::array", %"struct.std::array", %"struct.std::array", %"struct.std::array.0", %"struct.std::array.1", %"struct.std::array.1", %"struct.std::array.1", %"class.facebook::yoga::StyleValueHandle", %"class.facebook::yoga::StyleValuePool" }
%"struct.std::array" = type { [9 x %"class.facebook::yoga::StyleValueHandle"] }
%"struct.std::array.0" = type { [3 x %"class.facebook::yoga::StyleValueHandle"] }
%"struct.std::array.1" = type { [2 x %"class.facebook::yoga::StyleValueHandle"] }
%"class.facebook::yoga::StyleValueHandle" = type { i16 }
%"class.facebook::yoga::StyleValuePool" = type { %"class.facebook::yoga::SmallValueBuffer" }
%"class.facebook::yoga::SmallValueBuffer" = type { i16, %"struct.std::array.2", %"class.std::bitset", %"class.std::unique_ptr" }
%"struct.std::array.2" = type { [4 x i32] }
%"class.std::bitset" = type { %"struct.std::_Base_bitset" }
%"struct.std::_Base_bitset" = type { i64 }
%"class.std::unique_ptr" = type { %"struct.std::__uniq_ptr_data" }
%"struct.std::__uniq_ptr_data" = type { %"class.std::__uniq_ptr_impl" }
%"class.std::__uniq_ptr_impl" = type { %"class.std::tuple" }
%"class.std::tuple" = type { %"struct.std::_Tuple_impl" }
%"struct.std::_Tuple_impl" = type { %"struct.std::_Head_base.4" }
%"struct.std::_Head_base.4" = type { ptr }
%"struct.facebook::yoga::LayoutResults" = type { i32, %"struct.facebook::yoga::FloatOptional", i32, i32, i8, i32, %"struct.std::array.5", %"struct.facebook::yoga::CachedMeasurement", i8, %"struct.std::array.6", %"struct.std::array.6", %"struct.std::array.7", %"struct.std::array.7", %"struct.std::array.7", %"struct.std::array.7" }
%"struct.facebook::yoga::FloatOptional" = type { float }
%"struct.std::array.5" = type { [8 x %"struct.facebook::yoga::CachedMeasurement"] }
%"struct.facebook::yoga::CachedMeasurement" = type { float, float, i32, i32, float, float }
%"struct.std::array.6" = type { [2 x float] }
%"struct.std::array.7" = type { [4 x float] }
%"class.std::vector" = type { %"struct.std::_Vector_base" }
%"struct.std::_Vector_base" = type { %"struct.std::_Vector_base<facebook::yoga::Node *, std::allocator<facebook::yoga::Node *>>::_Vector_impl" }
%"struct.std::_Vector_base<facebook::yoga::Node *, std::allocator<facebook::yoga::Node *>>::_Vector_impl" = type { %"struct.std::_Vector_base<facebook::yoga::Node *, std::allocator<facebook::yoga::Node *>>::_Vector_impl_data" }
%"struct.std::_Vector_base<facebook::yoga::Node *, std::allocator<facebook::yoga::Node *>>::_Vector_impl_data" = type { ptr, ptr, ptr }
%"struct.std::array.8" = type { [2 x %"class.facebook::yoga::StyleSizeLength"] }
%"class.facebook::yoga::StyleSizeLength" = type <{ %"struct.facebook::yoga::FloatOptional", i8, [3 x i8] }>

@.str.7 = private unnamed_addr constant [22 x i8] c"Invalid FlexDirection\00", align 1

; Function Attrs: mustprogress nounwind uwtable
define linkonce_odr hidden noundef zeroext i1 @_ZN8facebook4yoga11isUndefinedITkSt14floating_pointfEEbT_(float noundef %0) #7 comdat {
  %2 = alloca float, align 4
  store float %0, ptr %2, align 4, !tbaa !81
  %3 = load float, ptr %2, align 4, !tbaa !81
  %4 = load float, ptr %2, align 4, !tbaa !81
  %5 = fcmp une float %3, %4
  ret i1 %5
}

; Function Attrs: mustprogress nounwind uwtable
define linkonce_odr noundef float @_ZNSt14numeric_limitsIfE9quiet_NaNEv() #7 comdat align 2 {
  ret float 0x7FF8000000000000
}

; Function Attrs: mustprogress nounwind uwtable
define linkonce_odr hidden noundef zeroext i1 @_ZN8facebook4yoga9isDefinedITkSt14floating_pointfEEbT_(float noundef %0) #7 comdat {
  %2 = alloca float, align 4
  store float %0, ptr %2, align 4, !tbaa !81
  %3 = load float, ptr %2, align 4, !tbaa !81
  %4 = call noundef zeroext i1 @_ZN8facebook4yoga11isUndefinedITkSt14floating_pointfEEbT_(float noundef %3)
  %5 = xor i1 %4, true
  ret i1 %5
}

; Function Attrs: mustprogress uwtable
define linkonce_odr noundef float @_ZNK8facebook4yoga5Style30computeFlexEndPaddingAndBorderENS0_13FlexDirectionENS0_9DirectionEf(ptr noundef nonnull align 8 dereferenceable(144) %0, i8 noundef zeroext %1, i8 noundef zeroext %2, float noundef %3) #4 comdat align 2 {
  %5 = alloca ptr, align 8
  %6 = alloca i8, align 1
  %7 = alloca i8, align 1
  %8 = alloca float, align 4
  store ptr %0, ptr %5, align 8, !tbaa !66
  store i8 %1, ptr %6, align 1, !tbaa !103
  store i8 %2, ptr %7, align 1, !tbaa !88
  store float %3, ptr %8, align 4, !tbaa !81
  %9 = load ptr, ptr %5, align 8
  %10 = load i8, ptr %6, align 1, !tbaa !103
  %11 = load i8, ptr %7, align 1, !tbaa !88
  %12 = load float, ptr %8, align 4, !tbaa !81
  %13 = call noundef float @_ZNK8facebook4yoga5Style21computeFlexEndPaddingENS0_13FlexDirectionENS0_9DirectionEf(ptr noundef nonnull align 8 dereferenceable(144) %9, i8 noundef zeroext %10, i8 noundef zeroext %11, float noundef %12)
  %14 = load i8, ptr %6, align 1, !tbaa !103
  %15 = load i8, ptr %7, align 1, !tbaa !88
  %16 = call noundef float @_ZNK8facebook4yoga5Style20computeFlexEndBorderENS0_13FlexDirectionENS0_9DirectionE(ptr noundef nonnull align 8 dereferenceable(144) %9, i8 noundef zeroext %14, i8 noundef zeroext %15)
  %17 = fadd float %13, %16
  ret float %17
}

; Function Attrs: mustprogress uwtable
define linkonce_odr noundef float @_ZNK8facebook4yoga5Style32computeFlexStartPaddingAndBorderENS0_13FlexDirectionENS0_9DirectionEf(ptr noundef nonnull align 8 dereferenceable(144) %0, i8 noundef zeroext %1, i8 noundef zeroext %2, float noundef %3) #4 comdat align 2 {
  %5 = alloca ptr, align 8
  %6 = alloca i8, align 1
  %7 = alloca i8, align 1
  %8 = alloca float, align 4
  store ptr %0, ptr %5, align 8, !tbaa !66
  store i8 %1, ptr %6, align 1, !tbaa !103
  store i8 %2, ptr %7, align 1, !tbaa !88
  store float %3, ptr %8, align 4, !tbaa !81
  %9 = load ptr, ptr %5, align 8
  %10 = load i8, ptr %6, align 1, !tbaa !103
  %11 = load i8, ptr %7, align 1, !tbaa !88
  %12 = load float, ptr %8, align 4, !tbaa !81
  %13 = call noundef float @_ZNK8facebook4yoga5Style23computeFlexStartPaddingENS0_13FlexDirectionENS0_9DirectionEf(ptr noundef nonnull align 8 dereferenceable(144) %9, i8 noundef zeroext %10, i8 noundef zeroext %11, float noundef %12)
  %14 = load i8, ptr %6, align 1, !tbaa !103
  %15 = load i8, ptr %7, align 1, !tbaa !88
  %16 = call noundef float @_ZNK8facebook4yoga5Style22computeFlexStartBorderENS0_13FlexDirectionENS0_9DirectionE(ptr noundef nonnull align 8 dereferenceable(144) %9, i8 noundef zeroext %14, i8 noundef zeroext %15)
  %17 = fadd float %13, %16
  ret float %17
}

; Function Attrs: mustprogress nounwind uwtable
define linkonce_odr hidden void @_ZN8facebook4yoga13FloatOptionalC2Ev(ptr noundef nonnull align 4 dereferenceable(4) %0) unnamed_addr #7 comdat align 2 {
  %2 = alloca ptr, align 8
  store ptr %0, ptr %2, align 8, !tbaa !135
  %3 = load ptr, ptr %2, align 8
  %4 = getelementptr inbounds nuw %"struct.facebook::yoga::FloatOptional", ptr %3, i32 0, i32 0
  %5 = call noundef float @_ZNSt14numeric_limitsIfE9quiet_NaNEv() #3
  store float %5, ptr %4, align 4, !tbaa !137
  ret void
}

; Function Attrs: mustprogress nounwind uwtable
define linkonce_odr hidden noundef float @_ZNK8facebook4yoga13FloatOptional6unwrapEv(ptr noundef nonnull align 4 dereferenceable(4) %0) #7 comdat align 2 {
  %2 = alloca ptr, align 8
  store ptr %0, ptr %2, align 8, !tbaa !135
  %3 = load ptr, ptr %2, align 8
  %4 = getelementptr inbounds nuw %"struct.facebook::yoga::FloatOptional", ptr %3, i32 0, i32 0
  %5 = load float, ptr %4, align 4, !tbaa !137
  ret float %5
}

; Function Attrs: mustprogress uwtable
define linkonce_odr hidden float @_ZN8facebook4yogaplENS0_13FloatOptionalES1_(float %0, float %1) #4 comdat {
  %3 = alloca %"struct.facebook::yoga::FloatOptional", align 4
  %4 = alloca %"struct.facebook::yoga::FloatOptional", align 4
  %5 = alloca %"struct.facebook::yoga::FloatOptional", align 4
  %6 = getelementptr inbounds nuw %"struct.facebook::yoga::FloatOptional", ptr %4, i32 0, i32 0
  store float %0, ptr %6, align 4
  %7 = getelementptr inbounds nuw %"struct.facebook::yoga::FloatOptional", ptr %5, i32 0, i32 0
  store float %1, ptr %7, align 4
  %8 = call noundef float @_ZNK8facebook4yoga13FloatOptional6unwrapEv(ptr noundef nonnull align 4 dereferenceable(4) %4)
  %9 = call noundef float @_ZNK8facebook4yoga13FloatOptional6unwrapEv(ptr noundef nonnull align 4 dereferenceable(4) %5)
  %10 = fadd float %8, %9
  call void @_ZN8facebook4yoga13FloatOptionalC2Ef(ptr noundef nonnull align 4 dereferenceable(4) %3, float noundef %10)
  %11 = getelementptr inbounds nuw %"struct.facebook::yoga::FloatOptional", ptr %3, i32 0, i32 0
  %12 = load float, ptr %11, align 4
  ret float %12
}

; Function Attrs: mustprogress nounwind uwtable
define linkonce_odr hidden noundef zeroext i1 @_ZNK8facebook4yoga13FloatOptional9isDefinedEv(ptr noundef nonnull align 4 dereferenceable(4) %0) #7 comdat align 2 {
  %2 = alloca ptr, align 8
  store ptr %0, ptr %2, align 8, !tbaa !135
  %3 = load ptr, ptr %2, align 8
  %4 = getelementptr inbounds nuw %"struct.facebook::yoga::FloatOptional", ptr %3, i32 0, i32 0
  %5 = load float, ptr %4, align 4, !tbaa !137
  %6 = call noundef zeroext i1 @_ZN8facebook4yoga9isDefinedITkSt14floating_pointfEEbT_(float noundef %5)
  ret i1 %6
}

; Function Attrs: mustprogress nounwind uwtable
define linkonce_odr hidden void @_ZN8facebook4yoga13FloatOptionalC2Ef(ptr noundef nonnull align 4 dereferenceable(4) %0, float noundef %1) unnamed_addr #7 comdat align 2 {
  %3 = alloca ptr, align 8
  %4 = alloca float, align 4
  store ptr %0, ptr %3, align 8, !tbaa !135
  store float %1, ptr %4, align 4, !tbaa !81
  %5 = load ptr, ptr %3, align 8
  %6 = getelementptr inbounds nuw %"struct.facebook::yoga::FloatOptional", ptr %5, i32 0, i32 0
  %7 = load float, ptr %4, align 4, !tbaa !81
  store float %7, ptr %6, align 4, !tbaa !137
  ret void
}

; Function Attrs: mustprogress uwtable
define linkonce_odr noundef float @_ZNK8facebook4yoga5Style35computePaddingAndBorderForDimensionENS0_9DirectionENS0_9DimensionEf(ptr noundef nonnull align 8 dereferenceable(144) %0, i8 noundef zeroext %1, i8 noundef zeroext %2, float noundef %3) #4 comdat align 2 {
  %5 = alloca ptr, align 8
  %6 = alloca i8, align 1
  %7 = alloca i8, align 1
  %8 = alloca float, align 4
  %9 = alloca i8, align 1
  store ptr %0, ptr %5, align 8, !tbaa !66
  store i8 %1, ptr %6, align 1, !tbaa !88
  store i8 %2, ptr %7, align 1, !tbaa !104
  store float %3, ptr %8, align 4, !tbaa !81
  %10 = load ptr, ptr %5, align 8
  call void @llvm.lifetime.start.p0(i64 1, ptr %9) #3
  %11 = load i8, ptr %7, align 1, !tbaa !104
  %12 = icmp eq i8 %11, 0
  %13 = select i1 %12, i8 2, i8 0
  store i8 %13, ptr %9, align 1, !tbaa !103
  %14 = load i8, ptr %9, align 1, !tbaa !103
  %15 = load i8, ptr %6, align 1, !tbaa !88
  %16 = load float, ptr %8, align 4, !tbaa !81
  %17 = call noundef float @_ZNK8facebook4yoga5Style32computeFlexStartPaddingAndBorderENS0_13FlexDirectionENS0_9DirectionEf(ptr noundef nonnull align 8 dereferenceable(144) %10, i8 noundef zeroext %14, i8 noundef zeroext %15, float noundef %16)
  %18 = load i8, ptr %9, align 1, !tbaa !103
  %19 = load i8, ptr %6, align 1, !tbaa !88
  %20 = load float, ptr %8, align 4, !tbaa !81
  %21 = call noundef float @_ZNK8facebook4yoga5Style30computeFlexEndPaddingAndBorderENS0_13FlexDirectionENS0_9DirectionEf(ptr noundef nonnull align 8 dereferenceable(144) %10, i8 noundef zeroext %18, i8 noundef zeroext %19, float noundef %20)
  %22 = fadd float %17, %21
  call void @llvm.lifetime.end.p0(i64 1, ptr %9) #3
  ret float %22
}

; Function Attrs: inlinehint mustprogress uwtable
define linkonce_odr hidden noundef zeroext i8 @_ZN8facebook4yoga9dimensionENS0_13FlexDirectionE(i8 noundef zeroext %0) #5 comdat {
  %2 = alloca i8, align 1
  %3 = alloca i8, align 1
  store i8 %0, ptr %3, align 1, !tbaa !103
  %4 = load i8, ptr %3, align 1, !tbaa !103
  switch i8 %4, label %9 [
    i8 0, label %5
    i8 1, label %6
    i8 2, label %7
    i8 3, label %8
  ]

5:                                                ; preds = %1
  store i8 1, ptr %2, align 1
  br label %10

6:                                                ; preds = %1
  store i8 1, ptr %2, align 1
  br label %10

7:                                                ; preds = %1
  store i8 0, ptr %2, align 1
  br label %10

8:                                                ; preds = %1
  store i8 0, ptr %2, align 1
  br label %10

9:                                                ; preds = %1
  call void @_ZN8facebook4yoga16fatalWithMessageEPKc(ptr noundef @.str.7) #21
  unreachable

10:                                               ; preds = %8, %7, %6, %5
  %11 = load i8, ptr %2, align 1
  ret i8 %11
}

; Function Attrs: mustprogress nounwind uwtable
define linkonce_odr noundef zeroext i8 @_ZNK8facebook4yoga5Style9boxSizingEv(ptr noundef nonnull align 8 dereferenceable(144) %0) #7 comdat align 2 {
  %2 = alloca ptr, align 8
  store ptr %0, ptr %2, align 8, !tbaa !66
  %3 = load ptr, ptr %2, align 8
  %4 = load i32, ptr %3, align 8
  %5 = lshr i32 %4, 28
  %6 = and i32 %5, 1
  %7 = trunc i32 %6 to i8
  ret i8 %7
}

; Function Attrs: mustprogress uwtable
define linkonce_odr hidden float @_ZN8facebook4yoga15StyleSizeLength7resolveEf(ptr noundef nonnull align 4 dereferenceable(5) %0, float noundef %1) #4 comdat align 2 {
  %3 = alloca %"struct.facebook::yoga::FloatOptional", align 4
  %4 = alloca ptr, align 8
  %5 = alloca float, align 4
  store ptr %0, ptr %4, align 8, !tbaa !131
  store float %1, ptr %5, align 4, !tbaa !81
  %6 = load ptr, ptr %4, align 8
  %7 = getelementptr inbounds nuw %"class.facebook::yoga::StyleSizeLength", ptr %6, i32 0, i32 1
  %8 = load i8, ptr %7, align 4, !tbaa !133
  switch i8 %8, label %17 [
    i8 1, label %9
    i8 2, label %11
  ]

9:                                                ; preds = %2
  %10 = getelementptr inbounds nuw %"class.facebook::yoga::StyleSizeLength", ptr %6, i32 0, i32 0
  call void @llvm.memcpy.p0.p0.i64(ptr align 4 %3, ptr align 4 %10, i64 4, i1 false), !tbaa.struct !124
  br label %18

11:                                               ; preds = %2
  %12 = getelementptr inbounds nuw %"class.facebook::yoga::StyleSizeLength", ptr %6, i32 0, i32 0
  %13 = call noundef float @_ZNK8facebook4yoga13FloatOptional6unwrapEv(ptr noundef nonnull align 4 dereferenceable(4) %12)
  %14 = load float, ptr %5, align 4, !tbaa !81
  %15 = fmul float %13, %14
  %16 = fmul float %15, 0x3F847AE140000000
  call void @_ZN8facebook4yoga13FloatOptionalC2Ef(ptr noundef nonnull align 4 dereferenceable(4) %3, float noundef %16)
  br label %18

17:                                               ; preds = %2
  call void @llvm.memset.p0.i64(ptr align 4 %3, i8 0, i64 4, i1 false)
  call void @_ZN8facebook4yoga13FloatOptionalC2Ev(ptr noundef nonnull align 4 dereferenceable(4) %3) #3
  br label %18

18:                                               ; preds = %17, %11, %9
  %19 = getelementptr inbounds nuw %"struct.facebook::yoga::FloatOptional", ptr %3, i32 0, i32 0
  %20 = load float, ptr %19, align 4
  ret float %20
}

; Function Attrs: mustprogress uwtable
define float @_ZNK8facebook4yoga4Node16resolveFlexBasisENS0_9DirectionENS0_13FlexDirectionEff(ptr noundef nonnull align 8 dereferenceable(584) %0, i8 noundef zeroext %1, i8 noundef zeroext %2, float noundef %3, float noundef %4) #4 align 2 {
  %6 = alloca %"struct.facebook::yoga::FloatOptional", align 4
  %7 = alloca ptr, align 8
  %8 = alloca i8, align 1
  %9 = alloca i8, align 1
  %10 = alloca float, align 4
  %11 = alloca float, align 4
  %12 = alloca %"struct.facebook::yoga::FloatOptional", align 4
  %13 = alloca %"class.facebook::yoga::StyleSizeLength", align 4
  %14 = alloca i32, align 4
  %15 = alloca i8, align 1
  %16 = alloca %"struct.facebook::yoga::FloatOptional", align 4
  %17 = alloca %"struct.facebook::yoga::FloatOptional", align 4
  %18 = alloca %"struct.facebook::yoga::FloatOptional", align 4
  store ptr %0, ptr %7, align 8, !tbaa !4
  store i8 %1, ptr %8, align 1, !tbaa !88
  store i8 %2, ptr %9, align 1, !tbaa !103
  store float %3, ptr %10, align 4, !tbaa !81
  store float %4, ptr %11, align 4, !tbaa !81
  %19 = load ptr, ptr %7, align 8
  call void @llvm.lifetime.start.p0(i64 4, ptr %12) #3
  call void @llvm.lifetime.start.p0(i64 8, ptr %13) #3
  %20 = call i64 @_ZNK8facebook4yoga4Node16processFlexBasisEv(ptr noundef nonnull align 8 dereferenceable(584) %19)
  %21 = trunc i64 %20 to i40
  store i40 %21, ptr %13, align 4
  %22 = load float, ptr %10, align 4, !tbaa !81
  %23 = call float @_ZN8facebook4yoga15StyleSizeLength7resolveEf(ptr noundef nonnull align 4 dereferenceable(5) %13, float noundef %22)
  %24 = getelementptr inbounds nuw %"struct.facebook::yoga::FloatOptional", ptr %12, i32 0, i32 0
  store float %23, ptr %24, align 4
  call void @llvm.lifetime.end.p0(i64 8, ptr %13) #3
  %25 = getelementptr inbounds nuw %"class.facebook::yoga::Node", ptr %19, i32 0, i32 5
  %26 = call noundef zeroext i8 @_ZNK8facebook4yoga5Style9boxSizingEv(ptr noundef nonnull align 8 dereferenceable(144) %25)
  %27 = icmp eq i8 %26, 0
  br i1 %27, label %28, label %29

28:                                               ; preds = %5
  call void @llvm.memcpy.p0.p0.i64(ptr align 4 %6, ptr align 4 %12, i64 4, i1 false), !tbaa.struct !124
  store i32 1, ptr %14, align 4
  br label %47

29:                                               ; preds = %5
  call void @llvm.lifetime.start.p0(i64 1, ptr %15) #3
  %30 = load i8, ptr %9, align 1, !tbaa !103
  %31 = call noundef zeroext i8 @_ZN8facebook4yoga9dimensionENS0_13FlexDirectionE(i8 noundef zeroext %30)
  store i8 %31, ptr %15, align 1, !tbaa !104
  call void @llvm.lifetime.start.p0(i64 4, ptr %16) #3
  %32 = getelementptr inbounds nuw %"class.facebook::yoga::Node", ptr %19, i32 0, i32 5
  %33 = load i8, ptr %8, align 1, !tbaa !88
  %34 = load i8, ptr %15, align 1, !tbaa !104
  %35 = load float, ptr %11, align 4, !tbaa !81
  %36 = call noundef float @_ZNK8facebook4yoga5Style35computePaddingAndBorderForDimensionENS0_9DirectionENS0_9DimensionEf(ptr noundef nonnull align 8 dereferenceable(144) %32, i8 noundef zeroext %33, i8 noundef zeroext %34, float noundef %35)
  call void @_ZN8facebook4yoga13FloatOptionalC2Ef(ptr noundef nonnull align 4 dereferenceable(4) %16, float noundef %36)
  call void @llvm.memcpy.p0.p0.i64(ptr align 4 %17, ptr align 4 %12, i64 4, i1 false), !tbaa.struct !124
  %37 = call noundef zeroext i1 @_ZNK8facebook4yoga13FloatOptional9isDefinedEv(ptr noundef nonnull align 4 dereferenceable(4) %16)
  br i1 %37, label %38, label %39

38:                                               ; preds = %29
  call void @llvm.memcpy.p0.p0.i64(ptr align 4 %18, ptr align 4 %16, i64 4, i1 false), !tbaa.struct !124
  br label %40

39:                                               ; preds = %29
  call void @_ZN8facebook4yoga13FloatOptionalC2Ef(ptr noundef nonnull align 4 dereferenceable(4) %18, float noundef 0.000000e+00)
  br label %40

40:                                               ; preds = %39, %38
  %41 = getelementptr inbounds nuw %"struct.facebook::yoga::FloatOptional", ptr %17, i32 0, i32 0
  %42 = load float, ptr %41, align 4
  %43 = getelementptr inbounds nuw %"struct.facebook::yoga::FloatOptional", ptr %18, i32 0, i32 0
  %44 = load float, ptr %43, align 4
  %45 = call float @_ZN8facebook4yogaplENS0_13FloatOptionalES1_(float %42, float %44)
  %46 = getelementptr inbounds nuw %"struct.facebook::yoga::FloatOptional", ptr %6, i32 0, i32 0
  store float %45, ptr %46, align 4
  store i32 1, ptr %14, align 4
  call void @llvm.lifetime.end.p0(i64 4, ptr %16) #3
  call void @llvm.lifetime.end.p0(i64 1, ptr %15) #3
  br label %47

47:                                               ; preds = %40, %28
  call void @llvm.lifetime.end.p0(i64 4, ptr %12) #3
  %48 = getelementptr inbounds nuw %"struct.facebook::yoga::FloatOptional", ptr %6, i32 0, i32 0
  %49 = load float, ptr %48, align 4
  ret float %49
}