; Function Attrs: mustprogress uwtable
define float @_ZNK8facebook4yoga4Node16resolveFlexBasisENS0_9DirectionENS0_13FlexDirectionEff(ptr noundef nonnull align 8 dereferenceable(584) %0, i8 noundef zeroext %1, i8 noundef zeroext %2, float noundef %3, float noundef %4) local_unnamed_addr #3 align 2 {
  %6 = tail call i64 @_ZNK8facebook4yoga4Node16processFlexBasisEv(ptr noundef nonnull align 8 dereferenceable(584) %0)
  %.sroa.08.sroa.0.0.extract.trunc = trunc i64 %6 to i32
  %7 = bitcast i32 %.sroa.08.sroa.0.0.extract.trunc to float
  %.sroa.08.sroa.5.0.extract.shift11 = lshr i64 %6, 32
  %.sroa.08.sroa.5.0.extract.trunc = trunc nuw i64 %.sroa.08.sroa.5.0.extract.shift11 to i8
  switch i8 %.sroa.08.sroa.5.0.extract.trunc, label %_ZN8facebook4yoga15StyleSizeLength7resolveEf.exit [
    i8 1, label %8
    i8 2, label %9
  ]

8:                                                ; preds = %5
  br label %_ZN8facebook4yoga15StyleSizeLength7resolveEf.exit

9:                                                ; preds = %5
  %10 = fmul float %3, %7
  %11 = fmul float %10, 0x3F847AE140000000
  br label %_ZN8facebook4yoga15StyleSizeLength7resolveEf.exit

_ZN8facebook4yoga15StyleSizeLength7resolveEf.exit: ; preds = %5, %8, %9
  %.sroa.0.0.i = phi float [ %11, %9 ], [ %7, %8 ], [ 0x7FF8000000000000, %5 ]
  %12 = getelementptr inbounds nuw i8, ptr %0, i64 40
  %13 = load i32, ptr %12, align 8
  %14 = and i32 %13, 268435456
  %15 = icmp eq i32 %14, 0
  br i1 %15, label %29, label %16

16:                                               ; preds = %_ZN8facebook4yoga15StyleSizeLength7resolveEf.exit
  %17 = icmp ult i8 %2, 4
  br i1 %17, label %switch.lookup, label %18

18:                                               ; preds = %16
  tail call void @_ZN8facebook4yoga16fatalWithMessageEPKc(ptr noundef nonnull @.str.7) #27
  unreachable

switch.lookup:                                    ; preds = %16
  %19 = shl nuw nsw i8 %2, 3
  %switch.shiftamt = zext nneg i8 %19 to i32
  %switch.downshift = lshr i32 33685504, %switch.shiftamt
  %switch.masked = trunc i32 %switch.downshift to i8
  %20 = tail call noundef float @_ZNK8facebook4yoga5Style23computeFlexStartPaddingENS0_13FlexDirectionENS0_9DirectionEf(ptr noundef nonnull align 8 dereferenceable(144) %12, i8 noundef zeroext %switch.masked, i8 noundef zeroext %1, float noundef %4)
  %21 = tail call noundef float @_ZNK8facebook4yoga5Style22computeFlexStartBorderENS0_13FlexDirectionENS0_9DirectionE(ptr noundef nonnull align 8 dereferenceable(144) %12, i8 noundef zeroext %switch.masked, i8 noundef zeroext %1)
  %22 = fadd float %20, %21
  %23 = tail call noundef float @_ZNK8facebook4yoga5Style21computeFlexEndPaddingENS0_13FlexDirectionENS0_9DirectionEf(ptr noundef nonnull align 8 dereferenceable(144) %12, i8 noundef zeroext %switch.masked, i8 noundef zeroext %1, float noundef %4)
  %24 = tail call noundef float @_ZNK8facebook4yoga5Style20computeFlexEndBorderENS0_13FlexDirectionENS0_9DirectionE(ptr noundef nonnull align 8 dereferenceable(144) %12, i8 noundef zeroext %switch.masked, i8 noundef zeroext %1)
  %25 = fadd float %23, %24
  %26 = fadd float %22, %25
  %27 = fcmp ord float %26, 0.000000e+00
  %.sroa.0.0 = select i1 %27, float %26, float 0.000000e+00
  %28 = fadd float %.sroa.0.0.i, %.sroa.0.0
  br label %29

29:                                               ; preds = %_ZN8facebook4yoga15StyleSizeLength7resolveEf.exit, %switch.lookup
  %.sroa.06.0 = phi float [ %28, %switch.lookup ], [ %.sroa.0.0.i, %_ZN8facebook4yoga15StyleSizeLength7resolveEf.exit ]
  ret float %.sroa.06.0
}